target datalayout = "e-m:e-p270:32:32-p271:32:32-p272:64:64-i64:64-i128:128-f80:128-n8:16:32:64-S128"
target triple = "x86_64-pc-linux-gnu"

%"class.ceres::internal::ScratchEvaluatePreparer" = type { %"class.std::unique_ptr.8" }
%"class.std::unique_ptr.8" = type { %"struct.std::__uniq_ptr_data.9" }
%"struct.std::__uniq_ptr_data.9" = type { %"class.std::__uniq_ptr_impl.10" }
%"class.std::__uniq_ptr_impl.10" = type { %"class.std::tuple.11" }
%"class.std::tuple.11" = type { %"struct.std::_Tuple_impl.12" }
%"struct.std::_Tuple_impl.12" = type { %"struct.std::_Head_base.15" }
%"struct.std::_Head_base.15" = type { ptr }
%"class.ceres::internal::ResidualBlock" = type <{ ptr, ptr, %"class.std::unique_ptr.16", i32, [4 x i8] }>
%"class.std::unique_ptr.16" = type { %"struct.std::__uniq_ptr_data.17" }
%"struct.std::__uniq_ptr_data.17" = type { %"class.std::__uniq_ptr_impl.18" }
%"class.std::__uniq_ptr_impl.18" = type { %"class.std::tuple.19" }
%"class.std::tuple.19" = type { %"struct.std::_Tuple_impl.20" }
%"struct.std::_Tuple_impl.20" = type { %"struct.std::_Head_base.23" }
%"struct.std::_Head_base.23" = type { ptr }
%"class.ceres::internal::ParameterBlock" = type { ptr, i32, i8, ptr, ptr, %"class.std::unique_ptr.8", i32, i32, i32, %"class.std::unique_ptr.24", %"class.std::unique_ptr.8", %"class.std::unique_ptr.8" }
%"class.std::unique_ptr.24" = type { %"struct.std::__uniq_ptr_data.25" }
%"struct.std::__uniq_ptr_data.25" = type { %"class.std::__uniq_ptr_impl.26" }
%"class.std::__uniq_ptr_impl.26" = type { %"class.std::tuple.27" }
%"class.std::tuple.27" = type { %"struct.std::_Tuple_impl.28" }
%"struct.std::_Tuple_impl.28" = type { %"struct.std::_Head_base.31" }
%"struct.std::_Head_base.31" = type { ptr }
%"class.ceres::CostFunction" = type <{ ptr, %"class.std::vector.32", i32, [4 x i8] }>
%"class.std::vector.32" = type { %"struct.std::_Vector_base.33" }
%"struct.std::_Vector_base.33" = type { %"struct.std::_Vector_base<int, std::allocator<int>>::_Vector_impl" }
%"struct.std::_Vector_base<int, std::allocator<int>>::_Vector_impl" = type { %"struct.std::_Vector_base<int, std::allocator<int>>::_Vector_impl_data" }
%"struct.std::_Vector_base<int, std::allocator<int>>::_Vector_impl_data" = type { ptr, ptr, ptr }

; Function Attrs: mustprogress nounwind uwtable
define linkonce_odr hidden noundef nonnull align 8 dereferenceable(8) ptr @_ZNSt10_Head_baseILm0EPPN5ceres8internal14ParameterBlockELb0EE7_M_headERKS5_(ptr noundef nonnull align 8 dereferenceable(8) %0) #4 comdat align 2 {
  %2 = alloca ptr, align 8
  store ptr %0, ptr %2, align 8, !tbaa !112
  %3 = load ptr, ptr %2, align 8, !tbaa !112
  %4 = getelementptr inbounds nuw %"struct.std::_Head_base.23", ptr %3, i32 0, i32 0
  ret ptr %4
}

; Function Attrs: mustprogress nounwind uwtable
define linkonce_odr hidden noundef nonnull align 8 dereferenceable(8) ptr @_ZNSt11_Tuple_implILm0EJPPN5ceres8internal14ParameterBlockESt14default_deleteIA_S3_EEE7_M_headERKS8_(ptr noundef nonnull align 8 dereferenceable(8) %0) #4 comdat align 2 {
  %2 = alloca ptr, align 8
  store ptr %0, ptr %2, align 8, !tbaa !110
  %3 = load ptr, ptr %2, align 8, !tbaa !110
  %4 = call noundef nonnull align 8 dereferenceable(8) ptr @_ZNSt10_Head_baseILm0EPPN5ceres8internal14ParameterBlockELb0EE7_M_headERKS5_(ptr noundef nonnull align 8 dereferenceable(8) %3) #3
  ret ptr %4
}

; Function Attrs: mustprogress nounwind uwtable
define linkonce_odr hidden noundef nonnull align 8 dereferenceable(8) ptr @_ZNSt10_Head_baseILm0EPdLb0EE7_M_headERKS1_(ptr noundef nonnull align 8 dereferenceable(8) %0) #4 comdat align 2 {
  %2 = alloca ptr, align 8
  store ptr %0, ptr %2, align 8, !tbaa !85
  %3 = load ptr, ptr %2, align 8, !tbaa !85
  %4 = getelementptr inbounds nuw %"struct.std::_Head_base.15", ptr %3, i32 0, i32 0
  ret ptr %4
}

; Function Attrs: mustprogress nounwind uwtable
define linkonce_odr hidden noundef nonnull align 8 dereferenceable(8) ptr @_ZSt12__get_helperILm0EPPN5ceres8internal14ParameterBlockEJSt14default_deleteIA_S3_EEERKT0_RKSt11_Tuple_implIXT_EJS8_DpT1_EE(ptr noundef nonnull align 8 dereferenceable(8) %0) #4 comdat {
  %2 = alloca ptr, align 8
  store ptr %0, ptr %2, align 8, !tbaa !110
  %3 = load ptr, ptr %2, align 8, !tbaa !110
  %4 = call noundef nonnull align 8 dereferenceable(8) ptr @_ZNSt11_Tuple_implILm0EJPPN5ceres8internal14ParameterBlockESt14default_deleteIA_S3_EEE7_M_headERKS8_(ptr noundef nonnull align 8 dereferenceable(8) %3) #3
  ret ptr %4
}

; Function Attrs: mustprogress nounwind uwtable
define linkonce_odr hidden noundef nonnull align 8 dereferenceable(8) ptr @_ZNSt11_Tuple_implILm0EJPdSt14default_deleteIA_dEEE7_M_headERKS4_(ptr noundef nonnull align 8 dereferenceable(8) %0) #4 comdat align 2 {
  %2 = alloca ptr, align 8
  store ptr %0, ptr %2, align 8, !tbaa !83
  %3 = load ptr, ptr %2, align 8, !tbaa !83
  %4 = call noundef nonnull align 8 dereferenceable(8) ptr @_ZNSt10_Head_baseILm0EPdLb0EE7_M_headERKS1_(ptr noundef nonnull align 8 dereferenceable(8) %3) #3
  ret ptr %4
}

; Function Attrs: mustprogress nounwind uwtable
define linkonce_odr hidden noundef nonnull align 8 dereferenceable(8) ptr @_ZSt3getILm0EJPPN5ceres8internal14ParameterBlockESt14default_deleteIA_S3_EEERKNSt13tuple_elementIXT_ESt5tupleIJDpT0_EEE4typeERKSC_(ptr noundef nonnull align 8 dereferenceable(8) %0) #4 comdat {
  %2 = alloca ptr, align 8
  store ptr %0, ptr %2, align 8, !tbaa !108
  %3 = load ptr, ptr %2, align 8, !tbaa !108
  %4 = call noundef nonnull align 8 dereferenceable(8) ptr @_ZSt12__get_helperILm0EPPN5ceres8internal14ParameterBlockEJSt14default_deleteIA_S3_EEERKT0_RKSt11_Tuple_implIXT_EJS8_DpT1_EE(ptr noundef nonnull align 8 dereferenceable(8) %3) #3
  ret ptr %4
}

; Function Attrs: mustprogress nounwind uwtable
define linkonce_odr noundef nonnull align 8 dereferenceable(8) ptr @_ZSt12__get_helperILm0EPdJSt14default_deleteIA_dEEERKT0_RKSt11_Tuple_implIXT_EJS4_DpT1_EE(ptr noundef nonnull align 8 dereferenceable(8) %0) #4 comdat {
  %2 = alloca ptr, align 8
  store ptr %0, ptr %2, align 8, !tbaa !83
  %3 = load ptr, ptr %2, align 8, !tbaa !83
  %4 = call noundef nonnull align 8 dereferenceable(8) ptr @_ZNSt11_Tuple_implILm0EJPdSt14default_deleteIA_dEEE7_M_headERKS4_(ptr noundef nonnull align 8 dereferenceable(8) %3) #3
  ret ptr %4
}

; Function Attrs: mustprogress nounwind uwtable
define linkonce_odr hidden noundef ptr @_ZNKSt15__uniq_ptr_implIPN5ceres8internal14ParameterBlockESt14default_deleteIA_S3_EE6_M_ptrEv(ptr noundef nonnull align 8 dereferenceable(8) %0) #4 comdat align 2 {
  %2 = alloca ptr, align 8
  store ptr %0, ptr %2, align 8, !tbaa !105
  %3 = load ptr, ptr %2, align 8
  %4 = getelementptr inbounds nuw %"class.std::__uniq_ptr_impl.18", ptr %3, i32 0, i32 0
  %5 = call noundef nonnull align 8 dereferenceable(8) ptr @_ZSt3getILm0EJPPN5ceres8internal14ParameterBlockESt14default_deleteIA_S3_EEERKNSt13tuple_elementIXT_ESt5tupleIJDpT0_EEE4typeERKSC_(ptr noundef nonnull align 8 dereferenceable(8) %4) #3
  %6 = load ptr, ptr %5, align 8, !tbaa !107
  ret ptr %6
}

; Function Attrs: mustprogress nounwind uwtable
define linkonce_odr noundef nonnull align 8 dereferenceable(8) ptr @_ZSt3getILm0EJPdSt14default_deleteIA_dEEERKNSt13tuple_elementIXT_ESt5tupleIJDpT0_EEE4typeERKS8_(ptr noundef nonnull align 8 dereferenceable(8) %0) #4 comdat {
  %2 = alloca ptr, align 8
  store ptr %0, ptr %2, align 8, !tbaa !81
  %3 = load ptr, ptr %2, align 8, !tbaa !81
  %4 = call noundef nonnull align 8 dereferenceable(8) ptr @_ZSt12__get_helperILm0EPdJSt14default_deleteIA_dEEERKT0_RKSt11_Tuple_implIXT_EJS4_DpT1_EE(ptr noundef nonnull align 8 dereferenceable(8) %3) #3
  ret ptr %4
}

; Function Attrs: mustprogress nounwind uwtable
define linkonce_odr hidden noundef ptr @_ZNKSt10unique_ptrIA_PN5ceres8internal14ParameterBlockESt14default_deleteIS4_EE3getEv(ptr noundef nonnull align 8 dereferenceable(8) %0) #4 comdat align 2 {
  %2 = alloca ptr, align 8
  store ptr %0, ptr %2, align 8, !tbaa !103
  %3 = load ptr, ptr %2, align 8
  %4 = getelementptr inbounds nuw %"class.std::unique_ptr.16", ptr %3, i32 0, i32 0
  %5 = call noundef ptr @_ZNKSt15__uniq_ptr_implIPN5ceres8internal14ParameterBlockESt14default_deleteIA_S3_EE6_M_ptrEv(ptr noundef nonnull align 8 dereferenceable(8) %4) #3
  ret ptr %5
}

; Function Attrs: mustprogress nounwind uwtable
define linkonce_odr hidden noundef i64 @_ZNKSt6vectorIiSaIiEE4sizeEv(ptr noundef nonnull align 8 dereferenceable(24) %0) #4 comdat align 2 {
  %2 = alloca ptr, align 8
  store ptr %0, ptr %2, align 8, !tbaa !99
  %3 = load ptr, ptr %2, align 8
  %4 = getelementptr inbounds nuw %"struct.std::_Vector_base.33", ptr %3, i32 0, i32 0
  %5 = getelementptr inbounds nuw %"struct.std::_Vector_base<int, std::allocator<int>>::_Vector_impl_data", ptr %4, i32 0, i32 1
  %6 = load ptr, ptr %5, align 8, !tbaa !101
  %7 = getelementptr inbounds nuw %"struct.std::_Vector_base.33", ptr %3, i32 0, i32 0
  %8 = getelementptr inbounds nuw %"struct.std::_Vector_base<int, std::allocator<int>>::_Vector_impl_data", ptr %7, i32 0, i32 0
  %9 = load ptr, ptr %8, align 8, !tbaa !102
  %10 = ptrtoint ptr %6 to i64
  %11 = ptrtoint ptr %9 to i64
  %12 = sub i64 %10, %11
  %13 = sdiv exact i64 %12, 4
  ret i64 %13
}

; Function Attrs: mustprogress nounwind uwtable
define linkonce_odr hidden noundef nonnull align 8 dereferenceable(24) ptr @_ZNK5ceres12CostFunction21parameter_block_sizesEv(ptr noundef nonnull align 8 dereferenceable(36) %0) #4 comdat align 2 {
  %2 = alloca ptr, align 8
  store ptr %0, ptr %2, align 8, !tbaa !91
  %3 = load ptr, ptr %2, align 8
  %4 = getelementptr inbounds nuw %"class.ceres::CostFunction", ptr %3, i32 0, i32 1
  ret ptr %4
}

; Function Attrs: mustprogress nounwind uwtable
define linkonce_odr hidden noundef i32 @_ZNK5ceres12CostFunction13num_residualsEv(ptr noundef nonnull align 8 dereferenceable(36) %0) #4 comdat align 2 {
  %2 = alloca ptr, align 8
  store ptr %0, ptr %2, align 8, !tbaa !91
  %3 = load ptr, ptr %2, align 8
  %4 = getelementptr inbounds nuw %"class.ceres::CostFunction", ptr %3, i32 0, i32 2
  %5 = load i32, ptr %4, align 8, !tbaa !92
  ret i32 %5
}

; Function Attrs: mustprogress nounwind uwtable
define linkonce_odr hidden noundef ptr @_ZNKSt15__uniq_ptr_implIdSt14default_deleteIA_dEE6_M_ptrEv(ptr noundef nonnull align 8 dereferenceable(8) %0) #4 comdat align 2 {
  %2 = alloca ptr, align 8
  store ptr %0, ptr %2, align 8, !tbaa !77
  %3 = load ptr, ptr %2, align 8
  %4 = getelementptr inbounds nuw %"class.std::__uniq_ptr_impl.10", ptr %3, i32 0, i32 0
  %5 = call noundef nonnull align 8 dereferenceable(8) ptr @_ZSt3getILm0EJPdSt14default_deleteIA_dEEERKNSt13tuple_elementIXT_ESt5tupleIJDpT0_EEE4typeERKS8_(ptr noundef nonnull align 8 dereferenceable(8) %4) #3
  %6 = load ptr, ptr %5, align 8, !tbaa !32
  ret ptr %6
}

; Function Attrs: mustprogress uwtable
define linkonce_odr hidden noundef i32 @_ZNK5ceres8internal14ParameterBlock11TangentSizeEv(ptr noundef nonnull align 8 dereferenceable(80) %0) #6 comdat align 2 {
  %2 = alloca ptr, align 8
  store ptr %0, ptr %2, align 8, !tbaa !38
  %3 = load ptr, ptr %2, align 8
  %4 = getelementptr inbounds nuw %"class.ceres::internal::ParameterBlock", ptr %3, i32 0, i32 3
  %5 = load ptr, ptr %4, align 8, !tbaa !71
  %6 = icmp eq ptr %5, null
  br i1 %6, label %7, label %10

7:                                                ; preds = %1
  %8 = getelementptr inbounds nuw %"class.ceres::internal::ParameterBlock", ptr %3, i32 0, i32 1
  %9 = load i32, ptr %8, align 8, !tbaa !72
  br label %17

10:                                               ; preds = %1
  %11 = getelementptr inbounds nuw %"class.ceres::internal::ParameterBlock", ptr %3, i32 0, i32 3
  %12 = load ptr, ptr %11, align 8, !tbaa !71
  %13 = load ptr, ptr %12, align 8, !tbaa !73
  %14 = getelementptr inbounds ptr, ptr %13, i64 3
  %15 = load ptr, ptr %14, align 8
  %16 = call noundef i32 %15(ptr noundef nonnull align 8 dereferenceable(8) %12)
  br label %17

17:                                               ; preds = %10, %7
  %18 = phi i32 [ %9, %7 ], [ %16, %10 ]
  ret i32 %18
}

; Function Attrs: mustprogress uwtable
define linkonce_odr hidden noundef zeroext i1 @_ZNK5ceres8internal14ParameterBlock10IsConstantEv(ptr noundef nonnull align 8 dereferenceable(80) %0) #6 comdat align 2 {
  %2 = alloca ptr, align 8
  store ptr %0, ptr %2, align 8, !tbaa !38
  %3 = load ptr, ptr %2, align 8
  %4 = getelementptr inbounds nuw %"class.ceres::internal::ParameterBlock", ptr %3, i32 0, i32 2
  %5 = load i8, ptr %4, align 4, !tbaa !52, !range !69, !noundef !70
  %6 = trunc i8 %5 to i1
  br i1 %6, label %10, label %7

7:                                                ; preds = %1
  %8 = call noundef i32 @_ZNK5ceres8internal14ParameterBlock11TangentSizeEv(ptr noundef nonnull align 8 dereferenceable(80) %3)
  %9 = icmp eq i32 %8, 0
  br label %10

10:                                               ; preds = %7, %1
  %11 = phi i1 [ true, %1 ], [ %9, %7 ]
  ret i1 %11
}

; Function Attrs: mustprogress nounwind uwtable
define linkonce_odr hidden noundef ptr @_ZNK5ceres8internal13ResidualBlock16parameter_blocksEv(ptr noundef nonnull align 8 dereferenceable(28) %0) #4 comdat align 2 {
  %2 = alloca ptr, align 8
  store ptr %0, ptr %2, align 8, !tbaa !34
  %3 = load ptr, ptr %2, align 8
  %4 = getelementptr inbounds nuw %"class.ceres::internal::ResidualBlock", ptr %3, i32 0, i32 2
  %5 = call noundef ptr @_ZNKSt10unique_ptrIA_PN5ceres8internal14ParameterBlockESt14default_deleteIS4_EE3getEv(ptr noundef nonnull align 8 dereferenceable(8) %4) #3
  ret ptr %5
}

; Function Attrs: mustprogress uwtable
define linkonce_odr hidden noundef i32 @_ZNK5ceres8internal13ResidualBlock18NumParameterBlocksEv(ptr noundef nonnull align 8 dereferenceable(28) %0) #6 comdat align 2 {
  %2 = alloca ptr, align 8
  store ptr %0, ptr %2, align 8, !tbaa !34
  %3 = load ptr, ptr %2, align 8
  %4 = getelementptr inbounds nuw %"class.ceres::internal::ResidualBlock", ptr %3, i32 0, i32 0
  %5 = load ptr, ptr %4, align 8, !tbaa !41
  %6 = call noundef nonnull align 8 dereferenceable(24) ptr @_ZNK5ceres12CostFunction21parameter_block_sizesEv(ptr noundef nonnull align 8 dereferenceable(36) %5)
  %7 = call noundef i64 @_ZNKSt6vectorIiSaIiEE4sizeEv(ptr noundef nonnull align 8 dereferenceable(24) %6) #3
  %8 = trunc i64 %7 to i32
  ret i32 %8
}

; Function Attrs: mustprogress uwtable
define linkonce_odr hidden noundef i32 @_ZNK5ceres8internal13ResidualBlock12NumResidualsEv(ptr noundef nonnull align 8 dereferenceable(28) %0) #6 comdat align 2 {
  %2 = alloca ptr, align 8
  store ptr %0, ptr %2, align 8, !tbaa !34
  %3 = load ptr, ptr %2, align 8
  %4 = getelementptr inbounds nuw %"class.ceres::internal::ResidualBlock", ptr %3, i32 0, i32 0
  %5 = load ptr, ptr %4, align 8, !tbaa !41
  %6 = call noundef i32 @_ZNK5ceres12CostFunction13num_residualsEv(ptr noundef nonnull align 8 dereferenceable(36) %5)
  ret i32 %6
}

; Function Attrs: mustprogress nounwind uwtable
define linkonce_odr hidden noundef ptr @_ZNKSt10unique_ptrIA_dSt14default_deleteIS0_EE3getEv(ptr noundef nonnull align 8 dereferenceable(8) %0) #4 comdat align 2 {
  %2 = alloca ptr, align 8
  store ptr %0, ptr %2, align 8, !tbaa !28
  %3 = load ptr, ptr %2, align 8
  %4 = getelementptr inbounds nuw %"class.std::unique_ptr.8", ptr %3, i32 0, i32 0
  %5 = call noundef ptr @_ZNKSt15__uniq_ptr_implIdSt14default_deleteIA_dEE6_M_ptrEv(ptr noundef nonnull align 8 dereferenceable(8) %4) #3
  ret ptr %5
}

; Function Attrs: mustprogress uwtable
define hidden void @_ZN5ceres8internal23ScratchEvaluatePreparer7PrepareEPKNS0_13ResidualBlockEiPNS0_12SparseMatrixEPPd(ptr noundef nonnull align 8 dereferenceable(8) %0, ptr noundef %1, i32 noundef %2, ptr noundef %3, ptr noundef %4) #6 align 2 {
  %6 = alloca ptr, align 8
  %7 = alloca ptr, align 8
  %8 = alloca i32, align 4
  %9 = alloca ptr, align 8
  %10 = alloca ptr, align 8
  %11 = alloca ptr, align 8
  %12 = alloca i32, align 4
  %13 = alloca i32, align 4
  %14 = alloca i32, align 4
  %15 = alloca ptr, align 8
  store ptr %0, ptr %6, align 8, !tbaa !24
  store ptr %1, ptr %7, align 8, !tbaa !34
  store i32 %2, ptr %8, align 4, !tbaa !16
  store ptr %3, ptr %9, align 8, !tbaa !36
  store ptr %4, ptr %10, align 8, !tbaa !30
  %16 = load ptr, ptr %6, align 8
  call void @llvm.lifetime.start.p0(i64 8, ptr %11) #3
  %17 = getelementptr inbounds nuw %"class.ceres::internal::ScratchEvaluatePreparer", ptr %16, i32 0, i32 0
  %18 = call noundef ptr @_ZNKSt10unique_ptrIA_dSt14default_deleteIS0_EE3getEv(ptr noundef nonnull align 8 dereferenceable(8) %17) #3
  store ptr %18, ptr %11, align 8, !tbaa !32
  call void @llvm.lifetime.start.p0(i64 4, ptr %12) #3
  %19 = load ptr, ptr %7, align 8, !tbaa !34
  %20 = call noundef i32 @_ZNK5ceres8internal13ResidualBlock12NumResidualsEv(ptr noundef nonnull align 8 dereferenceable(28) %19)
  store i32 %20, ptr %12, align 4, !tbaa !16
  call void @llvm.lifetime.start.p0(i64 4, ptr %13) #3
  %21 = load ptr, ptr %7, align 8, !tbaa !34
  %22 = call noundef i32 @_ZNK5ceres8internal13ResidualBlock18NumParameterBlocksEv(ptr noundef nonnull align 8 dereferenceable(28) %21)
  store i32 %22, ptr %13, align 4, !tbaa !16
  call void @llvm.lifetime.start.p0(i64 4, ptr %14) #3
  store i32 0, ptr %14, align 4, !tbaa !16
  br label %23

23:                                               ; preds = %56, %5
  %24 = load i32, ptr %14, align 4, !tbaa !16
  %25 = load i32, ptr %13, align 4, !tbaa !16
  %26 = icmp slt i32 %24, %25
  br i1 %26, label %28, label %27

27:                                               ; preds = %23
  call void @llvm.lifetime.end.p0(i64 4, ptr %14) #3
  br label %59

28:                                               ; preds = %23
  call void @llvm.lifetime.start.p0(i64 8, ptr %15) #3
  %29 = load ptr, ptr %7, align 8, !tbaa !34
  %30 = call noundef ptr @_ZNK5ceres8internal13ResidualBlock16parameter_blocksEv(ptr noundef nonnull align 8 dereferenceable(28) %29)
  %31 = load i32, ptr %14, align 4, !tbaa !16
  %32 = sext i32 %31 to i64
  %33 = getelementptr inbounds ptr, ptr %30, i64 %32
  %34 = load ptr, ptr %33, align 8, !tbaa !38
  store ptr %34, ptr %15, align 8, !tbaa !38
  %35 = load ptr, ptr %15, align 8, !tbaa !38
  %36 = call noundef zeroext i1 @_ZNK5ceres8internal14ParameterBlock10IsConstantEv(ptr noundef nonnull align 8 dereferenceable(80) %35)
  br i1 %36, label %37, label %42

37:                                               ; preds = %28
  %38 = load ptr, ptr %10, align 8, !tbaa !30
  %39 = load i32, ptr %14, align 4, !tbaa !16
  %40 = sext i32 %39 to i64
  %41 = getelementptr inbounds ptr, ptr %38, i64 %40
  store ptr null, ptr %41, align 8, !tbaa !32
  br label %55

42:                                               ; preds = %28
  %43 = load ptr, ptr %11, align 8, !tbaa !32
  %44 = load ptr, ptr %10, align 8, !tbaa !30
  %45 = load i32, ptr %14, align 4, !tbaa !16
  %46 = sext i32 %45 to i64
  %47 = getelementptr inbounds ptr, ptr %44, i64 %46
  store ptr %43, ptr %47, align 8, !tbaa !32
  %48 = load i32, ptr %12, align 4, !tbaa !16
  %49 = load ptr, ptr %15, align 8, !tbaa !38
  %50 = call noundef i32 @_ZNK5ceres8internal14ParameterBlock11TangentSizeEv(ptr noundef nonnull align 8 dereferenceable(80) %49)
  %51 = mul nsw i32 %48, %50
  %52 = load ptr, ptr %11, align 8, !tbaa !32
  %53 = sext i32 %51 to i64
  %54 = getelementptr inbounds double, ptr %52, i64 %53
  store ptr %54, ptr %11, align 8, !tbaa !32
  br label %55

55:                                               ; preds = %42, %37
  call void @llvm.lifetime.end.p0(i64 8, ptr %15) #3
  br label %56

56:                                               ; preds = %55
  %57 = load i32, ptr %14, align 4, !tbaa !16
  %58 = add nsw i32 %57, 1
  store i32 %58, ptr %14, align 4, !tbaa !16
  br label %23, !llvm.loop !40

59:                                               ; preds = %27
  call void @llvm.lifetime.end.p0(i64 4, ptr %13) #3
  call void @llvm.lifetime.end.p0(i64 4, ptr %12) #3
  call void @llvm.lifetime.end.p0(i64 8, ptr %11) #3
  ret void
}