; Function Attrs: mustprogress uwtable
define hidden void @_ZN5ceres8internal23ScratchEvaluatePreparer7PrepareEPKNS0_13ResidualBlockEiPNS0_12SparseMatrixEPPd(ptr noundef nonnull readonly align 8 captures(none) dereferenceable(8) %0, ptr noundef readonly captures(none) %1, i32 noundef %2, ptr noundef readnone captures(none) %3, ptr noundef writeonly captures(none) %4) local_unnamed_addr #4 align 2 {
  %6 = load ptr, ptr %1, align 8, !tbaa !23
  %7 = getelementptr inbounds nuw i8, ptr %6, i64 32
  %8 = load i32, ptr %7, align 8, !tbaa !35
  %9 = getelementptr inbounds nuw i8, ptr %6, i64 8
  %10 = getelementptr inbounds nuw i8, ptr %6, i64 16
  %11 = load ptr, ptr %10, align 8, !tbaa !42
  %12 = load ptr, ptr %9, align 8, !tbaa !43
  %13 = ptrtoint ptr %11 to i64
  %14 = ptrtoint ptr %12 to i64
  %15 = sub i64 %13, %14
  %16 = lshr exact i64 %15, 2
  %17 = trunc i64 %16 to i32
  %18 = icmp sgt i32 %17, 0
  br i1 %18, label %.lr.ph, label %._crit_edge

.lr.ph:                                           ; preds = %5
  %19 = load ptr, ptr %0, align 8, !tbaa !17
  %20 = getelementptr inbounds nuw i8, ptr %1, i64 16
  %wide.trip.count = and i64 %16, 2147483647
  br label %21

._crit_edge:                                      ; preds = %59, %5
  ret void

21:                                               ; preds = %.lr.ph, %59
  %indvars.iv = phi i64 [ 0, %.lr.ph ], [ %indvars.iv.next, %59 ]
  %.018 = phi ptr [ %19, %.lr.ph ], [ %.1, %59 ]
  %22 = load ptr, ptr %20, align 8, !tbaa !44
  %23 = getelementptr inbounds nuw ptr, ptr %22, i64 %indvars.iv
  %24 = load ptr, ptr %23, align 8, !tbaa !45
  %25 = getelementptr inbounds nuw i8, ptr %24, i64 12
  %26 = load i8, ptr %25, align 4, !tbaa !47, !range !63, !noundef !64
  %27 = trunc nuw i8 %26 to i1
  br i1 %27, label %_ZNK5ceres8internal14ParameterBlock10IsConstantEv.exit.thread, label %28

28:                                               ; preds = %21
  %29 = getelementptr inbounds nuw i8, ptr %24, i64 16
  %30 = load ptr, ptr %29, align 8, !tbaa !65
  %31 = icmp eq ptr %30, null
  br i1 %31, label %32, label %35

32:                                               ; preds = %28
  %33 = getelementptr inbounds nuw i8, ptr %24, i64 8
  %34 = load i32, ptr %33, align 8, !tbaa !66
  br label %_ZNK5ceres8internal14ParameterBlock10IsConstantEv.exit

35:                                               ; preds = %28
  %36 = load ptr, ptr %30, align 8, !tbaa !67
  %37 = getelementptr inbounds nuw i8, ptr %36, i64 24
  %38 = load ptr, ptr %37, align 8
  %39 = tail call noundef i32 %38(ptr noundef nonnull align 8 dereferenceable(8) %30)
  br label %_ZNK5ceres8internal14ParameterBlock10IsConstantEv.exit

_ZNK5ceres8internal14ParameterBlock10IsConstantEv.exit: ; preds = %32, %35
  %40 = phi i32 [ %34, %32 ], [ %39, %35 ]
  %41 = icmp eq i32 %40, 0
  br i1 %41, label %_ZNK5ceres8internal14ParameterBlock10IsConstantEv.exit.thread, label %43

_ZNK5ceres8internal14ParameterBlock10IsConstantEv.exit.thread: ; preds = %21, %_ZNK5ceres8internal14ParameterBlock10IsConstantEv.exit
  %42 = getelementptr inbounds nuw ptr, ptr %4, i64 %indvars.iv
  store ptr null, ptr %42, align 8, !tbaa !17
  br label %59

43:                                               ; preds = %_ZNK5ceres8internal14ParameterBlock10IsConstantEv.exit
  %44 = getelementptr inbounds nuw ptr, ptr %4, i64 %indvars.iv
  store ptr %.018, ptr %44, align 8, !tbaa !17
  %45 = load ptr, ptr %29, align 8, !tbaa !65
  %46 = icmp eq ptr %45, null
  br i1 %46, label %47, label %50

47:                                               ; preds = %43
  %48 = getelementptr inbounds nuw i8, ptr %24, i64 8
  %49 = load i32, ptr %48, align 8, !tbaa !66
  br label %_ZNK5ceres8internal14ParameterBlock11TangentSizeEv.exit

50:                                               ; preds = %43
  %51 = load ptr, ptr %45, align 8, !tbaa !67
  %52 = getelementptr inbounds nuw i8, ptr %51, i64 24
  %53 = load ptr, ptr %52, align 8
  %54 = tail call noundef i32 %53(ptr noundef nonnull align 8 dereferenceable(8) %45)
  br label %_ZNK5ceres8internal14ParameterBlock11TangentSizeEv.exit

_ZNK5ceres8internal14ParameterBlock11TangentSizeEv.exit: ; preds = %47, %50
  %55 = phi i32 [ %49, %47 ], [ %54, %50 ]
  %56 = mul nsw i32 %55, %8
  %57 = sext i32 %56 to i64
  %58 = getelementptr inbounds double, ptr %.018, i64 %57
  br label %59

59:                                               ; preds = %_ZNK5ceres8internal14ParameterBlock11TangentSizeEv.exit, %_ZNK5ceres8internal14ParameterBlock10IsConstantEv.exit.thread
  %.1 = phi ptr [ %.018, %_ZNK5ceres8internal14ParameterBlock10IsConstantEv.exit.thread ], [ %58, %_ZNK5ceres8internal14ParameterBlock11TangentSizeEv.exit ]
  %indvars.iv.next = add nuw nsw i64 %indvars.iv, 1
  %exitcond.not = icmp eq i64 %indvars.iv.next, %wide.trip.count
  br i1 %exitcond.not, label %._crit_edge, label %21, !llvm.loop !69
}